; Function Attrs: mustprogress uwtable
define internal fastcc void @_ZL15setTrackbarPos_RKSt10shared_ptrI10CvTrackbarEi(ptr readonly %.0.val, i32 noundef %0) unnamed_addr #3 personality ptr @__gxx_personality_v0 {
  %2 = alloca %"class.std::__cxx11::basic_string", align 8
  %3 = alloca %"class.std::allocator", align 1
  %.not10 = icmp eq ptr %.0.val, null
  br i1 %.not10, label %4, label %14

4:                                                ; preds = %1
  call void @llvm.lifetime.start.p0(i64 32, ptr nonnull %2) #31
  call void @llvm.lifetime.start.p0(i64 1, ptr nonnull %3) #31
  call void @_ZNSt7__cxx1112basic_stringIcSt11char_traitsIcESaIcEEC2EPKcRKS3_(ptr noundef nonnull align 8 dereferenceable(32) %2, ptr noundef nonnull @.str.76, ptr noundef nonnull align 1 dereferenceable(1) %3)
  invoke void @_ZN2cv5errorEiRKNSt7__cxx1112basic_stringIcSt11char_traitsIcESaIcEEEPKcS9_i(i32 noundef -215, ptr noundef nonnull align 8 dereferenceable(32) %2, ptr noundef nonnull @__func__._ZL15setTrackbarPos_RKSt10shared_ptrI10CvTrackbarEi, ptr noundef nonnull @.str.1, i32 noundef 1641) #32
          to label %5 unwind label %6

5:                                                ; preds = %4
  unreachable

6:                                                ; preds = %4
  %7 = landingpad { ptr, i32 }
          cleanup
  %8 = load ptr, ptr %2, align 8, !tbaa !7
  %9 = getelementptr inbounds nuw i8, ptr %2, i64 16
  %10 = icmp eq ptr %8, %9
  br i1 %10, label %_ZNKSt7__cxx1112basic_stringIcSt11char_traitsIcESaIcEE11_M_is_localEv.exit.thread.i.i, label %_ZNKSt7__cxx1112basic_stringIcSt11char_traitsIcESaIcEE11_M_is_localEv.exit.i.i

_ZNKSt7__cxx1112basic_stringIcSt11char_traitsIcESaIcEE11_M_is_localEv.exit.thread.i.i: ; preds = %6
  %11 = getelementptr inbounds nuw i8, ptr %2, i64 8
  %12 = load i64, ptr %11, align 8, !tbaa !12
  %13 = icmp ult i64 %12, 16
  call void @llvm.assume(i1 %13)
  br label %_ZNSt7__cxx1112basic_stringIcSt11char_traitsIcESaIcEED2Ev.exit

_ZNKSt7__cxx1112basic_stringIcSt11char_traitsIcESaIcEE11_M_is_localEv.exit.i.i: ; preds = %6
  call void @_ZdlPv(ptr noundef %8) #33
  br label %_ZNSt7__cxx1112basic_stringIcSt11char_traitsIcESaIcEED2Ev.exit

_ZNSt7__cxx1112basic_stringIcSt11char_traitsIcESaIcEED2Ev.exit: ; preds = %_ZNKSt7__cxx1112basic_stringIcSt11char_traitsIcESaIcEE11_M_is_localEv.exit.i.i, %_ZNKSt7__cxx1112basic_stringIcSt11char_traitsIcESaIcEE11_M_is_localEv.exit.thread.i.i
  call void @llvm.lifetime.end.p0(i64 1, ptr nonnull %3) #31
  call void @llvm.lifetime.end.p0(i64 32, ptr nonnull %2) #31
  resume { ptr, i32 } %7

14:                                               ; preds = %1
  %15 = getelementptr inbounds nuw i8, ptr %.0.val, i64 72
  %16 = load i32, ptr %15, align 8, !tbaa !156
  %17 = getelementptr inbounds nuw i8, ptr %.0.val, i64 68
  %18 = load i32, ptr %17, align 4, !tbaa !149
  %.not = icmp sgt i32 %16, %18
  br i1 %.not, label %19, label %20

19:                                               ; preds = %14
  tail call void @_ZN2cv6detail17check_failed_autoEiiRKNS0_12CheckContextE(i32 noundef %16, i32 noundef %18, ptr noundef nonnull align 8 dereferenceable(48) @_ZZL15setTrackbarPos_RKSt10shared_ptrI10CvTrackbarEiE16__cv_check__1642) #32
  unreachable

20:                                               ; preds = %14
  %.sroa.speculated5 = tail call i32 @llvm.smax.i32(i32 %0, i32 %16)
  %.sroa.speculated = tail call i32 @llvm.smin.i32(i32 %18, i32 %.sroa.speculated5)
  %21 = getelementptr inbounds nuw i8, ptr %.0.val, i64 8
  %22 = load ptr, ptr %21, align 8, !tbaa !146
  %23 = tail call i64 @gtk_range_get_type() #30
  %24 = tail call ptr @g_type_check_instance_cast(ptr noundef %22, i64 noundef %23)
  %25 = sitofp i32 %.sroa.speculated to double
  tail call void @gtk_range_set_value(ptr noundef %24, double noundef %25)
  ret void
}